; Function Attrs: mustprogress nounwind uwtable
define hidden void @_ZN16ZGenerationYoung16pause_mark_startEv(ptr nocapture noundef nonnull readonly align 64 dereferenceable(6720) %0) local_unnamed_addr #0 align 2 {
  %2 = alloca %class.VM_ZMarkStartYoungAndOld, align 8
  %3 = alloca %class.VM_ZMarkStartYoung, align 8
  %4 = getelementptr inbounds i8, ptr %0, i64 6592
  %5 = load i32, ptr %4, align 64
  %6 = and i32 %5, -2
  %switch = icmp eq i32 %6, 2
  br i1 %switch, label %7, label %19

7:                                                ; preds = %1
  %8 = tail call noundef ptr @_ZN7ZDriver5majorEv() #18
  %9 = tail call noundef i32 @_ZN7ZDriver8gc_causeEv(ptr noundef nonnull align 8 dereferenceable(924) %8) #18
  %10 = getelementptr inbounds i8, ptr %2, i64 8
  store ptr null, ptr %10, align 8
  %11 = getelementptr inbounds i8, ptr %2, i64 16
  %12 = tail call noundef i32 @_ZN4GCId7currentEv() #18
  store i32 %12, ptr %11, align 8
  %13 = getelementptr inbounds i8, ptr %2, i64 20
  store i32 %9, ptr %13, align 4
  %14 = getelementptr inbounds i8, ptr %2, i64 24
  store i8 0, ptr %14, align 8
  store ptr getelementptr inbounds inrange(-16, 96) (i8, ptr @_ZTV24VM_ZMarkStartYoungAndOld, i64 16), ptr %2, align 8
  tail call void @_ZN12ZJNICritical5blockEv() #18
  call void @_ZN8VMThread7executeEP12VM_Operation(ptr noundef nonnull %2) #18
  %15 = load ptr, ptr %2, align 8
  %16 = getelementptr inbounds i8, ptr %15, i64 80
  %17 = load ptr, ptr %16, align 8
  %18 = call noundef zeroext i1 %17(ptr noundef nonnull align 8 dereferenceable(25) %2) #18
  br i1 %18, label %_ZN13VM_ZOperation5pauseEv.exit.sink.split, label %_ZN13VM_ZOperation5pauseEv.exit

19:                                               ; preds = %1
  %20 = getelementptr inbounds i8, ptr %3, i64 24
  store i64 0, ptr %20, align 8
  %21 = load ptr, ptr @_ZN11ZGeneration6_youngE, align 8
  %22 = getelementptr inbounds i8, ptr %21, i64 6592
  %23 = load i32, ptr %22, align 64
  %24 = icmp eq i32 %23, 0
  br i1 %24, label %25, label %27

25:                                               ; preds = %19
  %26 = tail call noundef ptr @_ZN7ZDriver5minorEv() #18
  br label %29

27:                                               ; preds = %19
  %28 = tail call noundef ptr @_ZN7ZDriver5majorEv() #18
  br label %29

29:                                               ; preds = %25, %27
  %.0.i.i.i = phi ptr [ %26, %25 ], [ %28, %27 ]
  %30 = tail call noundef i32 @_ZN7ZDriver8gc_causeEv(ptr noundef nonnull align 8 dereferenceable(924) %.0.i.i.i) #18
  %31 = getelementptr inbounds i8, ptr %3, i64 8
  store ptr null, ptr %31, align 8
  %32 = getelementptr inbounds i8, ptr %3, i64 16
  %33 = tail call noundef i32 @_ZN4GCId7currentEv() #18
  store i32 %33, ptr %32, align 8
  %34 = getelementptr inbounds i8, ptr %3, i64 20
  store i32 %30, ptr %34, align 4
  %35 = getelementptr inbounds i8, ptr %3, i64 24
  store i8 0, ptr %35, align 8
  store ptr getelementptr inbounds inrange(-16, 96) (i8, ptr @_ZTV18VM_ZMarkStartYoung, i64 16), ptr %3, align 8
  tail call void @_ZN12ZJNICritical5blockEv() #18
  call void @_ZN8VMThread7executeEP12VM_Operation(ptr noundef nonnull %3) #18
  %36 = load ptr, ptr %3, align 8
  %37 = getelementptr inbounds i8, ptr %36, i64 80
  %38 = load ptr, ptr %37, align 8
  %39 = call noundef zeroext i1 %38(ptr noundef nonnull align 8 dereferenceable(25) %3) #18
  br i1 %39, label %_ZN13VM_ZOperation5pauseEv.exit.sink.split, label %_ZN13VM_ZOperation5pauseEv.exit

_ZN13VM_ZOperation5pauseEv.exit.sink.split:       ; preds = %29, %7
  call void @_ZN12ZJNICritical7unblockEv() #18
  br label %_ZN13VM_ZOperation5pauseEv.exit

_ZN13VM_ZOperation5pauseEv.exit:                  ; preds = %_ZN13VM_ZOperation5pauseEv.exit.sink.split, %29, %7
  ret void
}